target datalayout = "e-m:e-p270:32:32-p271:32:32-p272:64:64-i64:64-i128:128-f80:128-n8:16:32:64-S128"
target triple = "x86_64-pc-linux-gnu"

%struct._generic_N_Vector = type { ptr, ptr, ptr }
%struct._N_VectorContent_Serial = type { i64, i32, ptr }

; Function Attrs: nounwind uwtable
define internal i32 @ff(double noundef %0, ptr noundef %1, ptr noundef %2, ptr noundef %3) #0 {
  %5 = alloca double, align 8
  %6 = alloca ptr, align 8
  %7 = alloca ptr, align 8
  %8 = alloca ptr, align 8
  %9 = alloca double, align 8
  %10 = alloca double, align 8
  %11 = alloca double, align 8
  store double %0, ptr %5, align 8, !tbaa !4
  store ptr %1, ptr %6, align 8, !tbaa !12
  store ptr %2, ptr %7, align 8, !tbaa !12
  store ptr %3, ptr %8, align 8, !tbaa !15
  call void @llvm.lifetime.start.p0(i64 8, ptr %9) #5
  store double 1.000000e+02, ptr %9, align 8, !tbaa !4
  call void @llvm.lifetime.start.p0(i64 8, ptr %10) #5
  %12 = load ptr, ptr %6, align 8, !tbaa !12
  %13 = getelementptr inbounds nuw %struct._generic_N_Vector, ptr %12, i32 0, i32 0
  %14 = load ptr, ptr %13, align 8, !tbaa !20
  %15 = getelementptr inbounds nuw %struct._N_VectorContent_Serial, ptr %14, i32 0, i32 2
  %16 = load ptr, ptr %15, align 8, !tbaa !23
  %17 = getelementptr inbounds double, ptr %16, i64 0
  %18 = load double, ptr %17, align 8, !tbaa !4
  store double %18, ptr %10, align 8, !tbaa !4
  call void @llvm.lifetime.start.p0(i64 8, ptr %11) #5
  %19 = load ptr, ptr %6, align 8, !tbaa !12
  %20 = getelementptr inbounds nuw %struct._generic_N_Vector, ptr %19, i32 0, i32 0
  %21 = load ptr, ptr %20, align 8, !tbaa !20
  %22 = getelementptr inbounds nuw %struct._N_VectorContent_Serial, ptr %21, i32 0, i32 2
  %23 = load ptr, ptr %22, align 8, !tbaa !23
  %24 = getelementptr inbounds double, ptr %23, i64 1
  %25 = load double, ptr %24, align 8, !tbaa !4
  store double %25, ptr %11, align 8, !tbaa !4
  %26 = load double, ptr %9, align 8, !tbaa !4
  %27 = load double, ptr %11, align 8, !tbaa !4
  %28 = fmul double %26, %27
  %29 = load ptr, ptr %7, align 8, !tbaa !12
  %30 = getelementptr inbounds nuw %struct._generic_N_Vector, ptr %29, i32 0, i32 0
  %31 = load ptr, ptr %30, align 8, !tbaa !20
  %32 = getelementptr inbounds nuw %struct._N_VectorContent_Serial, ptr %31, i32 0, i32 2
  %33 = load ptr, ptr %32, align 8, !tbaa !23
  %34 = getelementptr inbounds double, ptr %33, i64 0
  store double %28, ptr %34, align 8, !tbaa !4
  %35 = load double, ptr %9, align 8, !tbaa !4
  %36 = fneg double %35
  %37 = load double, ptr %10, align 8, !tbaa !4
  %38 = fmul double %36, %37
  %39 = load ptr, ptr %7, align 8, !tbaa !12
  %40 = getelementptr inbounds nuw %struct._generic_N_Vector, ptr %39, i32 0, i32 0
  %41 = load ptr, ptr %40, align 8, !tbaa !20
  %42 = getelementptr inbounds nuw %struct._N_VectorContent_Serial, ptr %41, i32 0, i32 2
  %43 = load ptr, ptr %42, align 8, !tbaa !23
  %44 = getelementptr inbounds double, ptr %43, i64 1
  store double %38, ptr %44, align 8, !tbaa !4
  %45 = load double, ptr %10, align 8, !tbaa !4
  %46 = load ptr, ptr %7, align 8, !tbaa !12
  %47 = getelementptr inbounds nuw %struct._generic_N_Vector, ptr %46, i32 0, i32 0
  %48 = load ptr, ptr %47, align 8, !tbaa !20
  %49 = getelementptr inbounds nuw %struct._N_VectorContent_Serial, ptr %48, i32 0, i32 2
  %50 = load ptr, ptr %49, align 8, !tbaa !23
  %51 = getelementptr inbounds double, ptr %50, i64 2
  store double %45, ptr %51, align 8, !tbaa !4
  call void @llvm.lifetime.end.p0(i64 8, ptr %11) #5
  call void @llvm.lifetime.end.p0(i64 8, ptr %10) #5
  call void @llvm.lifetime.end.p0(i64 8, ptr %9) #5
  ret i32 0
}